target datalayout = "e-m:e-p270:32:32-p271:32:32-p272:64:64-i64:64-i128:128-f80:128-n8:16:32:64-S128"
target triple = "x86_64-pc-linux-gnu"

%"class.std::__cxx11::basic_string" = type { %"struct.std::__cxx11::basic_string<char>::_Alloc_hider", i64, %union.anon }
%"struct.std::__cxx11::basic_string<char>::_Alloc_hider" = type { ptr }
%union.anon = type { i64, [8 x i8] }
%"class.std::allocator" = type { i8 }
%struct.CvMoments = type { double, double, double, double, double, double, double, double, double, double, double, double, double, double, double, double, double, double }
%struct.CvHuMoments = type { double, double, double, double, double, double, double }

@.str.1 = private unnamed_addr constant [123 x i8] c"generated/home/dtcxzyw/WorkSpace/Projects/compilers/llvm-opt-benchmark/bench/opencv/opencv/modules/imgproc/src/moments.cpp\00", align 1
@.str.3 = private unnamed_addr constant [1 x i8] zeroinitializer, align 1
@__func__.cvGetHuMoments = private unnamed_addr constant [15 x i8] c"cvGetHuMoments\00", align 1

; Function Attrs: mustprogress uwtable
define void @cvGetHuMoments(ptr noundef %0, ptr noundef %1) #1 personality ptr @__gxx_personality_v0 {
  %3 = alloca ptr, align 8
  %4 = alloca ptr, align 8
  %5 = alloca %"class.std::__cxx11::basic_string", align 8
  %6 = alloca %"class.std::allocator", align 1
  %7 = alloca ptr, align 8
  %8 = alloca i32, align 4
  %9 = alloca double, align 8
  %10 = alloca double, align 8
  %11 = alloca double, align 8
  %12 = alloca double, align 8
  %13 = alloca double, align 8
  %14 = alloca double, align 8
  %15 = alloca double, align 8
  %16 = alloca double, align 8
  %17 = alloca double, align 8
  %18 = alloca double, align 8
  %19 = alloca double, align 8
  %20 = alloca double, align 8
  %21 = alloca double, align 8
  %22 = alloca double, align 8
  %23 = alloca double, align 8
  %24 = alloca double, align 8
  %25 = alloca double, align 8
  %26 = alloca double, align 8
  store ptr %0, ptr %3, align 8
  store ptr %1, ptr %4, align 8
  %27 = load ptr, ptr %3, align 8
  %28 = icmp ne ptr %27, null
  br i1 %28, label %29, label %32

29:                                               ; preds = %2
  %30 = load ptr, ptr %4, align 8
  %31 = icmp ne ptr %30, null
  br i1 %31, label %44, label %32

32:                                               ; preds = %29, %2
  call void @_ZNSaIcEC1Ev(ptr noundef nonnull align 1 dereferenceable(1) %6) #9
  invoke void @_ZNSt7__cxx1112basic_stringIcSt11char_traitsIcESaIcEEC1EPKcRKS3_(ptr noundef nonnull align 8 dereferenceable(32) %5, ptr noundef @.str.3, ptr noundef nonnull align 1 dereferenceable(1) %6)
          to label %33 unwind label %35

33:                                               ; preds = %32
  invoke void @_ZN2cv5errorEiRKNSt7__cxx1112basic_stringIcSt11char_traitsIcESaIcEEEPKcS9_i(i32 noundef -27, ptr noundef nonnull align 8 dereferenceable(32) %5, ptr noundef @__func__.cvGetHuMoments, ptr noundef @.str.1, i32 noundef 806) #10
          to label %34 unwind label %39

34:                                               ; preds = %33
  unreachable

35:                                               ; preds = %32
  %36 = landingpad { ptr, i32 }
          cleanup
  %37 = extractvalue { ptr, i32 } %36, 0
  store ptr %37, ptr %7, align 8
  %38 = extractvalue { ptr, i32 } %36, 1
  store i32 %38, ptr %8, align 4
  br label %43

39:                                               ; preds = %33
  %40 = landingpad { ptr, i32 }
          cleanup
  %41 = extractvalue { ptr, i32 } %40, 0
  store ptr %41, ptr %7, align 8
  %42 = extractvalue { ptr, i32 } %40, 1
  store i32 %42, ptr %8, align 4
  call void @_ZNSt7__cxx1112basic_stringIcSt11char_traitsIcESaIcEED1Ev(ptr noundef nonnull align 8 dereferenceable(32) %5) #9
  br label %43

43:                                               ; preds = %39, %35
  call void @_ZNSaIcED1Ev(ptr noundef nonnull align 1 dereferenceable(1) %6) #9
  br label %183

44:                                               ; preds = %29
  %45 = load ptr, ptr %3, align 8
  %46 = getelementptr inbounds %struct.CvMoments, ptr %45, i32 0, i32 17
  %47 = load double, ptr %46, align 8
  store double %47, ptr %9, align 8
  %48 = load double, ptr %9, align 8
  %49 = load double, ptr %9, align 8
  %50 = fmul double %48, %49
  store double %50, ptr %10, align 8
  %51 = load double, ptr %10, align 8
  %52 = load double, ptr %10, align 8
  %53 = fmul double %51, %52
  store double %53, ptr %11, align 8
  %54 = load double, ptr %11, align 8
  %55 = load double, ptr %9, align 8
  %56 = fmul double %54, %55
  store double %56, ptr %12, align 8
  %57 = load ptr, ptr %3, align 8
  %58 = getelementptr inbounds %struct.CvMoments, ptr %57, i32 0, i32 10
  %59 = load double, ptr %58, align 8
  %60 = load double, ptr %11, align 8
  %61 = fmul double %59, %60
  store double %61, ptr %13, align 8
  %62 = load ptr, ptr %3, align 8
  %63 = getelementptr inbounds %struct.CvMoments, ptr %62, i32 0, i32 11
  %64 = load double, ptr %63, align 8
  %65 = load double, ptr %11, align 8
  %66 = fmul double %64, %65
  store double %66, ptr %14, align 8
  %67 = load ptr, ptr %3, align 8
  %68 = getelementptr inbounds %struct.CvMoments, ptr %67, i32 0, i32 12
  %69 = load double, ptr %68, align 8
  %70 = load double, ptr %11, align 8
  %71 = fmul double %69, %70
  store double %71, ptr %15, align 8
  %72 = load ptr, ptr %3, align 8
  %73 = getelementptr inbounds %struct.CvMoments, ptr %72, i32 0, i32 13
  %74 = load double, ptr %73, align 8
  %75 = load double, ptr %12, align 8
  %76 = fmul double %74, %75
  store double %76, ptr %16, align 8
  %77 = load ptr, ptr %3, align 8
  %78 = getelementptr inbounds %struct.CvMoments, ptr %77, i32 0, i32 14
  %79 = load double, ptr %78, align 8
  %80 = load double, ptr %12, align 8
  %81 = fmul double %79, %80
  store double %81, ptr %17, align 8
  %82 = load ptr, ptr %3, align 8
  %83 = getelementptr inbounds %struct.CvMoments, ptr %82, i32 0, i32 15
  %84 = load double, ptr %83, align 8
  %85 = load double, ptr %12, align 8
  %86 = fmul double %84, %85
  store double %86, ptr %18, align 8
  %87 = load ptr, ptr %3, align 8
  %88 = getelementptr inbounds %struct.CvMoments, ptr %87, i32 0, i32 16
  %89 = load double, ptr %88, align 8
  %90 = load double, ptr %12, align 8
  %91 = fmul double %89, %90
  store double %91, ptr %19, align 8
  %92 = load double, ptr %16, align 8
  %93 = load double, ptr %18, align 8
  %94 = fadd double %92, %93
  store double %94, ptr %20, align 8
  %95 = load double, ptr %17, align 8
  %96 = load double, ptr %19, align 8
  %97 = fadd double %95, %96
  store double %97, ptr %21, align 8
  %98 = load double, ptr %20, align 8
  %99 = load double, ptr %20, align 8
  %100 = fmul double %98, %99
  store double %100, ptr %22, align 8
  %101 = load double, ptr %21, align 8
  %102 = load double, ptr %21, align 8
  %103 = fmul double %101, %102
  store double %103, ptr %23, align 8
  %104 = load double, ptr %14, align 8
  %105 = fmul double 4.000000e+00, %104
  store double %105, ptr %24, align 8
  %106 = load double, ptr %13, align 8
  %107 = load double, ptr %15, align 8
  %108 = fadd double %106, %107
  store double %108, ptr %25, align 8
  %109 = load double, ptr %13, align 8
  %110 = load double, ptr %15, align 8
  %111 = fsub double %109, %110
  store double %111, ptr %26, align 8
  %112 = load double, ptr %25, align 8
  %113 = load ptr, ptr %4, align 8
  %114 = getelementptr inbounds %struct.CvHuMoments, ptr %113, i32 0, i32 0
  store double %112, ptr %114, align 8
  %115 = load double, ptr %26, align 8
  %116 = load double, ptr %26, align 8
  %117 = load double, ptr %24, align 8
  %118 = load double, ptr %14, align 8
  %119 = fmul double %117, %118
  %120 = call double @llvm.fmuladd.f64(double %115, double %116, double %119)
  %121 = load ptr, ptr %4, align 8
  %122 = getelementptr inbounds %struct.CvHuMoments, ptr %121, i32 0, i32 1
  store double %120, ptr %122, align 8
  %123 = load double, ptr %22, align 8
  %124 = load double, ptr %23, align 8
  %125 = fadd double %123, %124
  %126 = load ptr, ptr %4, align 8
  %127 = getelementptr inbounds %struct.CvHuMoments, ptr %126, i32 0, i32 3
  store double %125, ptr %127, align 8
  %128 = load double, ptr %26, align 8
  %129 = load double, ptr %22, align 8
  %130 = load double, ptr %23, align 8
  %131 = fsub double %129, %130
  %132 = load double, ptr %24, align 8
  %133 = load double, ptr %20, align 8
  %134 = fmul double %132, %133
  %135 = load double, ptr %21, align 8
  %136 = fmul double %134, %135
  %137 = call double @llvm.fmuladd.f64(double %128, double %131, double %136)
  %138 = load ptr, ptr %4, align 8
  %139 = getelementptr inbounds %struct.CvHuMoments, ptr %138, i32 0, i32 5
  store double %137, ptr %139, align 8
  %140 = load double, ptr %22, align 8
  %141 = load double, ptr %23, align 8
  %142 = call double @llvm.fmuladd.f64(double -3.000000e+00, double %141, double %140)
  %143 = load double, ptr %20, align 8
  %144 = fmul double %143, %142
  store double %144, ptr %20, align 8
  %145 = load double, ptr %22, align 8
  %146 = load double, ptr %23, align 8
  %147 = fneg double %146
  %148 = call double @llvm.fmuladd.f64(double 3.000000e+00, double %145, double %147)
  %149 = load double, ptr %21, align 8
  %150 = fmul double %149, %148
  store double %150, ptr %21, align 8
  %151 = load double, ptr %16, align 8
  %152 = load double, ptr %18, align 8
  %153 = call double @llvm.fmuladd.f64(double -3.000000e+00, double %152, double %151)
  store double %153, ptr %22, align 8
  %154 = load double, ptr %17, align 8
  %155 = load double, ptr %19, align 8
  %156 = fneg double %155
  %157 = call double @llvm.fmuladd.f64(double 3.000000e+00, double %154, double %156)
  store double %157, ptr %23, align 8
  %158 = load double, ptr %22, align 8
  %159 = load double, ptr %22, align 8
  %160 = load double, ptr %23, align 8
  %161 = load double, ptr %23, align 8
  %162 = fmul double %160, %161
  %163 = call double @llvm.fmuladd.f64(double %158, double %159, double %162)
  %164 = load ptr, ptr %4, align 8
  %165 = getelementptr inbounds %struct.CvHuMoments, ptr %164, i32 0, i32 2
  store double %163, ptr %165, align 8
  %166 = load double, ptr %22, align 8
  %167 = load double, ptr %20, align 8
  %168 = load double, ptr %23, align 8
  %169 = load double, ptr %21, align 8
  %170 = fmul double %168, %169
  %171 = call double @llvm.fmuladd.f64(double %166, double %167, double %170)
  %172 = load ptr, ptr %4, align 8
  %173 = getelementptr inbounds %struct.CvHuMoments, ptr %172, i32 0, i32 4
  store double %171, ptr %173, align 8
  %174 = load double, ptr %23, align 8
  %175 = load double, ptr %20, align 8
  %176 = load double, ptr %22, align 8
  %177 = load double, ptr %21, align 8
  %178 = fmul double %176, %177
  %179 = fneg double %178
  %180 = call double @llvm.fmuladd.f64(double %174, double %175, double %179)
  %181 = load ptr, ptr %4, align 8
  %182 = getelementptr inbounds %struct.CvHuMoments, ptr %181, i32 0, i32 6
  store double %180, ptr %182, align 8
  ret void

183:                                              ; preds = %43
  %184 = load ptr, ptr %7, align 8
  %185 = load i32, ptr %8, align 4
  %186 = insertvalue { ptr, i32 } poison, ptr %184, 0
  %187 = insertvalue { ptr, i32 } %186, i32 %185, 1
  resume { ptr, i32 } %187
}