; Function Attrs: mustprogress uwtable
define void @cvGetHuMoments(ptr noundef readonly %0, ptr noundef writeonly %1) local_unnamed_addr #2 personality ptr @__gxx_personality_v0 {
  %3 = alloca %"class.std::__cxx11::basic_string", align 8
  %4 = alloca %"class.std::allocator", align 1
  %5 = icmp ne ptr %0, null
  %6 = icmp ne ptr %1, null
  %or.cond = and i1 %5, %6
  br i1 %or.cond, label %15, label %7

7:                                                ; preds = %2
  call void @_ZNSaIcEC1Ev(ptr noundef nonnull align 1 dereferenceable(1) %4) #15
  invoke void @_ZNSt7__cxx1112basic_stringIcSt11char_traitsIcESaIcEEC1EPKcRKS3_(ptr noundef nonnull align 8 dereferenceable(32) %3, ptr noundef nonnull @.str.3, ptr noundef nonnull align 1 dereferenceable(1) %4)
          to label %8 unwind label %10

8:                                                ; preds = %7
  invoke void @_ZN2cv5errorEiRKNSt7__cxx1112basic_stringIcSt11char_traitsIcESaIcEEEPKcS9_i(i32 noundef -27, ptr noundef nonnull align 8 dereferenceable(32) %3, ptr noundef nonnull @__func__.cvGetHuMoments, ptr noundef nonnull @.str.1, i32 noundef 806) #16
          to label %9 unwind label %12

9:                                                ; preds = %8
  unreachable

10:                                               ; preds = %7
  %11 = landingpad { ptr, i32 }
          cleanup
  br label %14

12:                                               ; preds = %8
  %13 = landingpad { ptr, i32 }
          cleanup
  call void @_ZNSt7__cxx1112basic_stringIcSt11char_traitsIcESaIcEED1Ev(ptr noundef nonnull align 8 dereferenceable(32) %3) #15
  br label %14

14:                                               ; preds = %12, %10
  %.pn = phi { ptr, i32 } [ %13, %12 ], [ %11, %10 ]
  call void @_ZNSaIcED1Ev(ptr noundef nonnull align 1 dereferenceable(1) %4) #15
  resume { ptr, i32 } %.pn

15:                                               ; preds = %2
  %16 = getelementptr inbounds i8, ptr %0, i64 136
  %17 = load double, ptr %16, align 8
  %18 = fmul double %17, %17
  %19 = fmul double %18, %18
  %20 = fmul double %17, %19
  %21 = getelementptr inbounds i8, ptr %0, i64 80
  %22 = load double, ptr %21, align 8
  %23 = fmul double %22, %19
  %24 = getelementptr inbounds i8, ptr %0, i64 88
  %25 = load double, ptr %24, align 8
  %26 = fmul double %25, %19
  %27 = getelementptr inbounds i8, ptr %0, i64 96
  %28 = load double, ptr %27, align 8
  %29 = fmul double %19, %28
  %30 = getelementptr inbounds i8, ptr %0, i64 104
  %31 = getelementptr inbounds i8, ptr %0, i64 120
  %32 = fmul double %26, 4.000000e+00
  %33 = fadd double %23, %29
  %34 = fsub double %23, %29
  %35 = getelementptr inbounds i8, ptr %1, i64 8
  %36 = getelementptr inbounds i8, ptr %1, i64 24
  %37 = insertelement <2 x double> poison, double %26, i64 0
  %38 = insertelement <2 x double> poison, double %34, i64 0
  %39 = getelementptr inbounds i8, ptr %1, i64 32
  %40 = load <2 x double>, ptr %30, align 8
  %41 = insertelement <2 x double> poison, double %20, i64 0
  %42 = shufflevector <2 x double> %41, <2 x double> poison, <2 x i32> zeroinitializer
  %43 = fmul <2 x double> %42, %40
  %44 = load <2 x double>, ptr %31, align 8
  %45 = fmul <2 x double> %42, %44
  %46 = fadd <2 x double> %43, %45
  %47 = fmul <2 x double> %46, %46
  store double %33, ptr %1, align 8
  %48 = extractelement <2 x double> %47, i64 0
  %49 = extractelement <2 x double> %47, i64 1
  %50 = fadd double %48, %49
  store double %50, ptr %36, align 8
  %51 = fsub double %48, %49
  %52 = tail call double @llvm.fmuladd.f64(double %49, double -3.000000e+00, double %48)
  %53 = extractelement <2 x double> %46, i64 0
  %54 = fmul double %53, %52
  %55 = fneg double %49
  %56 = tail call double @llvm.fmuladd.f64(double %48, double 3.000000e+00, double %55)
  %57 = insertelement <2 x double> poison, double %32, i64 0
  %58 = insertelement <2 x double> %57, double %56, i64 1
  %59 = fmul <2 x double> %46, %58
  %60 = extractelement <2 x double> %43, i64 0
  %61 = extractelement <2 x double> %45, i64 0
  %62 = tail call double @llvm.fmuladd.f64(double %61, double -3.000000e+00, double %60)
  %63 = extractelement <2 x double> %45, i64 1
  %64 = fneg double %63
  %65 = extractelement <2 x double> %43, i64 1
  %66 = tail call double @llvm.fmuladd.f64(double %65, double 3.000000e+00, double %64)
  %67 = insertelement <2 x double> %37, double %66, i64 1
  %68 = insertelement <2 x double> %67, double %32, i64 0
  %69 = fmul <2 x double> %67, %68
  %70 = insertelement <2 x double> %38, double %62, i64 1
  %71 = tail call <2 x double> @llvm.fmuladd.v2f64(<2 x double> %70, <2 x double> %70, <2 x double> %69)
  store <2 x double> %71, ptr %35, align 8
  %72 = shufflevector <2 x double> %46, <2 x double> poison, <2 x i32> <i32 1, i32 poison>
  %73 = insertelement <2 x double> %72, double %66, i64 1
  %74 = fmul <2 x double> %73, %59
  %75 = insertelement <2 x double> poison, double %51, i64 0
  %76 = insertelement <2 x double> %75, double %54, i64 1
  %77 = tail call <2 x double> @llvm.fmuladd.v2f64(<2 x double> %70, <2 x double> %76, <2 x double> %74)
  %78 = shufflevector <2 x double> %77, <2 x double> poison, <2 x i32> <i32 1, i32 0>
  store <2 x double> %78, ptr %39, align 8
  %79 = fneg double %62
  %80 = extractelement <2 x double> %59, i64 1
  %81 = fmul double %80, %79
  %82 = tail call double @llvm.fmuladd.f64(double %66, double %54, double %81)
  %83 = getelementptr inbounds i8, ptr %1, i64 48
  store double %82, ptr %83, align 8
  ret void
}